; Function Attrs: mustprogress nofree norecurse nosync nounwind willreturn memory(argmem: read) uwtable
define dso_local noundef zeroext i1 @_ZNK25SimpleRuleBasedPathFilter4Tree6isLeafEv(ptr nocapture noundef nonnull readonly align 8 dereferenceable(64) %this) local_unnamed_addr #9 align 2 {
entry:
  %_M_node_count.i.i = getelementptr inbounds i8, ptr %this, i64 48
  %0 = load i64, ptr %_M_node_count.i.i, align 8
  %cmp.i.i = icmp eq i64 %0, 0
  %fWildcard = getelementptr inbounds i8, ptr %this, i64 56
  %1 = load ptr, ptr %fWildcard, align 8
  %cmp.i.not = icmp eq ptr %1, null
  %2 = select i1 %cmp.i.i, i1 %cmp.i.not, i1 false
  ret i1 %2
}